; Function Attrs: mustprogress uwtable
define internal noalias noundef ptr @_ZN3tbb6detail2d223for_each_root_task_baseIN32pxrInternal_v0_24__pxrReserved__22UsdPrimSubtreeIteratorEZZNS3_12_GLOBAL__N_137_TargetingPropertyDependencyCollector4_RunERKNS3_8TfRefPtrINS3_8UsdStageEEEENKUlvE_clEvEUlRKNS3_7UsdPrimEE_SD_E6cancelERNS0_2d114execution_dataE(ptr noundef nonnull readonly align 64 captures(none) dereferenceable(169) %0, ptr nonnull readnone align 8 captures(none) %1) unnamed_addr #0 align 2 {
  %3 = getelementptr inbounds nuw i8, ptr %0, i64 144
  %4 = load ptr, ptr %3, align 16
  %5 = getelementptr inbounds nuw i8, ptr %4, i64 8
  %6 = atomicrmw add ptr %5, i64 -1 seq_cst, align 8
  %.not.i.i = icmp eq i64 %6, 1
  br i1 %.not.i.i, label %7, label %_ZN3tbb6detail2d112wait_context7releaseEj.exit

7:                                                ; preds = %2
  %8 = ptrtoint ptr %4 to i64
  tail call void @_ZN3tbb6detail2r114notify_waitersEm(i64 noundef %8)
  br label %_ZN3tbb6detail2d112wait_context7releaseEj.exit

_ZN3tbb6detail2d112wait_context7releaseEj.exit:   ; preds = %2, %7
  ret ptr null
}